target datalayout = "e-m:e-p270:32:32-p271:32:32-p272:64:64-i64:64-i128:128-f80:128-n8:16:32:64-S128"
target triple = "x86_64-pc-linux-gnu"

%"class.p2t::Triangle" = type <{ [3 x i8], [3 x i8], [2 x i8], [3 x ptr], [3 x ptr], i8, [7 x i8] }>

; Function Attrs: mustprogress uwtable
define hidden noundef nonnull align 8 dereferenceable(57) ptr @_ZN3p2t5Sweep16NextFlipTriangleERNS_12SweepContextEiRNS_8TriangleES4_RNS_5PointES6_(ptr noundef nonnull align 8 dereferenceable(24) %0, ptr noundef nonnull align 8 dereferenceable(200) %1, i32 noundef %2, ptr noundef nonnull align 8 dereferenceable(57) %3, ptr noundef nonnull align 8 dereferenceable(57) %4, ptr noundef nonnull align 8 dereferenceable(40) %5, ptr noundef nonnull align 8 dereferenceable(40) %6) #0 align 2 {
  %8 = alloca ptr, align 8
  %9 = alloca ptr, align 8
  %10 = alloca ptr, align 8
  %11 = alloca i32, align 4
  %12 = alloca ptr, align 8
  %13 = alloca ptr, align 8
  %14 = alloca ptr, align 8
  %15 = alloca ptr, align 8
  %16 = alloca i32, align 4
  %17 = alloca i32, align 4
  store ptr %0, ptr %9, align 8
  store ptr %1, ptr %10, align 8
  store i32 %2, ptr %11, align 4
  store ptr %3, ptr %12, align 8
  store ptr %4, ptr %13, align 8
  store ptr %5, ptr %14, align 8
  store ptr %6, ptr %15, align 8
  %18 = load ptr, ptr %9, align 8
  %19 = load i32, ptr %11, align 4
  %20 = icmp eq i32 %19, 1
  br i1 %20, label %21, label %36

21:                                               ; preds = %7
  call void @llvm.lifetime.start.p0(i64 4, ptr %16) #14
  %22 = load ptr, ptr %13, align 8
  %23 = load ptr, ptr %14, align 8
  %24 = load ptr, ptr %15, align 8
  %25 = call noundef i32 @_ZN3p2t8Triangle9EdgeIndexEPKNS_5PointES3_(ptr noundef nonnull align 8 dereferenceable(57) %22, ptr noundef %23, ptr noundef %24)
  store i32 %25, ptr %16, align 4
  %26 = load ptr, ptr %13, align 8
  %27 = getelementptr inbounds nuw %"class.p2t::Triangle", ptr %26, i32 0, i32 1
  %28 = load i32, ptr %16, align 4
  %29 = sext i32 %28 to i64
  %30 = getelementptr inbounds [3 x i8], ptr %27, i64 0, i64 %29
  store i8 1, ptr %30, align 1
  %31 = load ptr, ptr %10, align 8
  %32 = load ptr, ptr %13, align 8
  %33 = call noundef zeroext i1 @_ZN3p2t5Sweep8LegalizeERNS_12SweepContextERNS_8TriangleE(ptr noundef nonnull align 8 dereferenceable(24) %18, ptr noundef nonnull align 8 dereferenceable(200) %31, ptr noundef nonnull align 8 dereferenceable(57) %32)
  %34 = load ptr, ptr %13, align 8
  call void @_ZN3p2t8Triangle17ClearDelunayEdgesEv(ptr noundef nonnull align 8 dereferenceable(57) %34)
  %35 = load ptr, ptr %12, align 8
  store ptr %35, ptr %8, align 8
  call void @llvm.lifetime.end.p0(i64 4, ptr %16) #14
  br label %51

36:                                               ; preds = %7
  call void @llvm.lifetime.start.p0(i64 4, ptr %17) #14
  %37 = load ptr, ptr %12, align 8
  %38 = load ptr, ptr %14, align 8
  %39 = load ptr, ptr %15, align 8
  %40 = call noundef i32 @_ZN3p2t8Triangle9EdgeIndexEPKNS_5PointES3_(ptr noundef nonnull align 8 dereferenceable(57) %37, ptr noundef %38, ptr noundef %39)
  store i32 %40, ptr %17, align 4
  %41 = load ptr, ptr %12, align 8
  %42 = getelementptr inbounds nuw %"class.p2t::Triangle", ptr %41, i32 0, i32 1
  %43 = load i32, ptr %17, align 4
  %44 = sext i32 %43 to i64
  %45 = getelementptr inbounds [3 x i8], ptr %42, i64 0, i64 %44
  store i8 1, ptr %45, align 1
  %46 = load ptr, ptr %10, align 8
  %47 = load ptr, ptr %12, align 8
  %48 = call noundef zeroext i1 @_ZN3p2t5Sweep8LegalizeERNS_12SweepContextERNS_8TriangleE(ptr noundef nonnull align 8 dereferenceable(24) %18, ptr noundef nonnull align 8 dereferenceable(200) %46, ptr noundef nonnull align 8 dereferenceable(57) %47)
  %49 = load ptr, ptr %12, align 8
  call void @_ZN3p2t8Triangle17ClearDelunayEdgesEv(ptr noundef nonnull align 8 dereferenceable(57) %49)
  %50 = load ptr, ptr %13, align 8
  store ptr %50, ptr %8, align 8
  call void @llvm.lifetime.end.p0(i64 4, ptr %17) #14
  br label %51

51:                                               ; preds = %36, %21
  %52 = load ptr, ptr %8, align 8
  ret ptr %52
}