; Function Attrs: mustprogress uwtable
define hidden noundef nonnull align 8 dereferenceable(57) ptr @_ZN3p2t5Sweep16NextFlipTriangleERNS_12SweepContextEiRNS_8TriangleES4_RNS_5PointES6_(ptr noundef nonnull align 8 dereferenceable(24) %0, ptr noundef nonnull align 8 dereferenceable(200) %1, i32 noundef %2, ptr noundef nonnull align 8 dereferenceable(57) %3, ptr noundef nonnull align 8 dereferenceable(57) %4, ptr noundef nonnull align 8 dereferenceable(40) %5, ptr noundef nonnull align 8 dereferenceable(40) %6) local_unnamed_addr #2 align 2 {
  %8 = icmp eq i32 %2, 1
  %. = select i1 %8, ptr %4, ptr %3
  %.27 = select i1 %8, ptr %3, ptr %4
  %9 = tail call noundef i32 @_ZN3p2t8Triangle9EdgeIndexEPKNS_5PointES3_(ptr noundef nonnull align 8 dereferenceable(57) %., ptr noundef nonnull %5, ptr noundef nonnull %6)
  %10 = getelementptr inbounds nuw i8, ptr %., i64 3
  %11 = sext i32 %9 to i64
  %12 = getelementptr inbounds [3 x i8], ptr %10, i64 0, i64 %11
  store i8 1, ptr %12, align 1
  %13 = tail call noundef zeroext i1 @_ZN3p2t5Sweep8LegalizeERNS_12SweepContextERNS_8TriangleE(ptr noundef nonnull align 8 dereferenceable(24) %0, ptr noundef nonnull align 8 dereferenceable(200) %1, ptr noundef nonnull align 8 dereferenceable(57) %.)
  tail call void @_ZN3p2t8Triangle17ClearDelunayEdgesEv(ptr noundef nonnull align 8 dereferenceable(57) %.)
  ret ptr %.27
}